target datalayout = "e-m:e-p270:32:32-p271:32:32-p272:64:64-i64:64-i128:128-f80:128-n8:16:32:64-S128"
target triple = "x86_64-pc-linux-gnu"

%struct.strvec = type { ptr, i64, i64 }
%struct.strbuf = type { i64, i64, ptr }
%struct.child_process = type { %struct.strvec, %struct.strvec, i32, i32, i64, ptr, ptr, i32, i32, i32, ptr, i16, ptr }

@.str.21 = private unnamed_addr constant [4 x i8] c"get\00", align 1
@__const.credential_do.cmd = private unnamed_addr constant %struct.strbuf { i64 0, i64 0, ptr @strbuf_slopbuf }, align 8
@.str.44 = private unnamed_addr constant [18 x i8] c"git credential-%s\00", align 1
@.str.45 = private unnamed_addr constant [4 x i8] c" %s\00", align 1
@.str.46 = private unnamed_addr constant [2 x i8] c"w\00", align 1
@.str.47 = private unnamed_addr constant [2 x i8] c"r\00", align 1

; Function Attrs: inlinehint nounwind uwtable
define internal i32 @git_has_dos_drive_prefix(ptr noundef %0) #7 {
  %2 = alloca ptr, align 8
  store ptr %0, ptr %2, align 8, !tbaa !32
  ret i32 0
}

; Function Attrs: inlinehint nounwind uwtable
define internal i32 @git_is_dir_sep(i32 noundef %0) #7 {
  %2 = alloca i32, align 4
  store i32 %0, ptr %2, align 4, !tbaa !27
  %3 = load i32, ptr %2, align 4, !tbaa !27
  %4 = icmp eq i32 %3, 47
  %5 = zext i1 %4 to i32
  ret i32 %5
}

; Function Attrs: nounwind uwtable
define internal i32 @run_credential_helper(ptr noundef %0, ptr noundef %1, i32 noundef %2) #0 {
  %4 = alloca i32, align 4
  %5 = alloca ptr, align 8
  %6 = alloca ptr, align 8
  %7 = alloca i32, align 4
  %8 = alloca %struct.child_process, align 8
  %9 = alloca ptr, align 8
  %10 = alloca i32, align 4
  %11 = alloca i32, align 4
  store ptr %0, ptr %5, align 8, !tbaa !4
  store ptr %1, ptr %6, align 8, !tbaa !32
  store i32 %2, ptr %7, align 4, !tbaa !27
  call void @llvm.lifetime.start.p0(i64 120, ptr %8) #10
  call void @llvm.memcpy.p0.p0.i64(ptr align 8 %8, ptr align 8 @__const.run_credential_helper.helper, i64 120, i1 false)
  call void @llvm.lifetime.start.p0(i64 8, ptr %9) #10
  %12 = getelementptr inbounds nuw %struct.child_process, ptr %8, i32 0, i32 0
  %13 = load ptr, ptr %6, align 8, !tbaa !32
  %14 = call ptr @strvec_push(ptr noundef %12, ptr noundef %13)
  %15 = getelementptr inbounds nuw %struct.child_process, ptr %8, i32 0, i32 11
  %16 = load i16, ptr %15, align 8
  %17 = and i16 %16, -33
  %18 = or i16 %17, 32
  store i16 %18, ptr %15, align 8
  %19 = getelementptr inbounds nuw %struct.child_process, ptr %8, i32 0, i32 7
  store i32 -1, ptr %19, align 8, !tbaa !80
  %20 = load i32, ptr %7, align 4, !tbaa !27
  %21 = icmp ne i32 %20, 0
  br i1 %21, label %22, label %24

22:                                               ; preds = %3
  %23 = getelementptr inbounds nuw %struct.child_process, ptr %8, i32 0, i32 8
  store i32 -1, ptr %23, align 4, !tbaa !82
  br label %29

24:                                               ; preds = %3
  %25 = getelementptr inbounds nuw %struct.child_process, ptr %8, i32 0, i32 11
  %26 = load i16, ptr %25, align 8
  %27 = and i16 %26, -3
  %28 = or i16 %27, 2
  store i16 %28, ptr %25, align 8
  br label %29

29:                                               ; preds = %24, %22
  %30 = call i32 @start_command(ptr noundef %8)
  %31 = icmp slt i32 %30, 0
  br i1 %31, label %32, label %33

32:                                               ; preds = %29
  store i32 -1, ptr %4, align 4
  store i32 1, ptr %10, align 4
  br label %70

33:                                               ; preds = %29
  %34 = getelementptr inbounds nuw %struct.child_process, ptr %8, i32 0, i32 7
  %35 = load i32, ptr %34, align 8, !tbaa !80
  %36 = call ptr @xfdopen(i32 noundef %35, ptr noundef @.str.46)
  store ptr %36, ptr %9, align 8, !tbaa !30
  %37 = call i32 @sigchain_push(i32 noundef 13, ptr noundef inttoptr (i64 1 to ptr))
  %38 = load ptr, ptr %5, align 8, !tbaa !4
  %39 = load ptr, ptr %9, align 8, !tbaa !30
  %40 = load i32, ptr %7, align 4, !tbaa !27
  %41 = icmp ne i32 %40, 0
  %42 = select i1 %41, i32 2, i32 3
  call void @credential_write(ptr noundef %38, ptr noundef %39, i32 noundef %42)
  %43 = load ptr, ptr %9, align 8, !tbaa !30
  %44 = call i32 @fclose(ptr noundef %43)
  %45 = call i32 @sigchain_pop(i32 noundef 13)
  %46 = load i32, ptr %7, align 4, !tbaa !27
  %47 = icmp ne i32 %46, 0
  br i1 %47, label %48, label %65

48:                                               ; preds = %33
  call void @llvm.lifetime.start.p0(i64 4, ptr %11) #10
  %49 = getelementptr inbounds nuw %struct.child_process, ptr %8, i32 0, i32 8
  %50 = load i32, ptr %49, align 4, !tbaa !82
  %51 = call ptr @xfdopen(i32 noundef %50, ptr noundef @.str.47)
  store ptr %51, ptr %9, align 8, !tbaa !30
  %52 = load ptr, ptr %5, align 8, !tbaa !4
  %53 = load ptr, ptr %9, align 8, !tbaa !30
  %54 = call i32 @credential_read(ptr noundef %52, ptr noundef %53, i32 noundef 2)
  store i32 %54, ptr %11, align 4, !tbaa !27
  %55 = load ptr, ptr %9, align 8, !tbaa !30
  %56 = call i32 @fclose(ptr noundef %55)
  %57 = load i32, ptr %11, align 4, !tbaa !27
  %58 = icmp slt i32 %57, 0
  br i1 %58, label %59, label %61

59:                                               ; preds = %48
  %60 = call i32 @finish_command(ptr noundef %8)
  store i32 -1, ptr %4, align 4
  store i32 1, ptr %10, align 4
  br label %62

61:                                               ; preds = %48
  store i32 0, ptr %10, align 4
  br label %62

62:                                               ; preds = %61, %59
  call void @llvm.lifetime.end.p0(i64 4, ptr %11) #10
  %63 = load i32, ptr %10, align 4
  switch i32 %63, label %70 [
    i32 0, label %64
  ]

64:                                               ; preds = %62
  br label %65

65:                                               ; preds = %64, %33
  %66 = call i32 @finish_command(ptr noundef %8)
  %67 = icmp ne i32 %66, 0
  br i1 %67, label %68, label %69

68:                                               ; preds = %65
  store i32 -1, ptr %4, align 4
  store i32 1, ptr %10, align 4
  br label %70

69:                                               ; preds = %65
  store i32 0, ptr %4, align 4
  store i32 1, ptr %10, align 4
  br label %70

70:                                               ; preds = %69, %68, %62, %32
  call void @llvm.lifetime.end.p0(i64 8, ptr %9) #10
  call void @llvm.lifetime.end.p0(i64 120, ptr %8) #10
  %71 = load i32, ptr %4, align 4
  ret i32 %71
}

; Function Attrs: inlinehint nounwind uwtable
define internal i32 @is_absolute_path(ptr noundef %0) #7 {
  %2 = alloca ptr, align 8
  store ptr %0, ptr %2, align 8, !tbaa !32
  %3 = load ptr, ptr %2, align 8, !tbaa !32
  %4 = getelementptr inbounds i8, ptr %3, i64 0
  %5 = load i8, ptr %4, align 1, !tbaa !36
  %6 = sext i8 %5 to i32
  %7 = call i32 @git_is_dir_sep(i32 noundef %6)
  %8 = icmp ne i32 %7, 0
  br i1 %8, label %13, label %9

9:                                                ; preds = %1
  %10 = load ptr, ptr %2, align 8, !tbaa !32
  %11 = call i32 @git_has_dos_drive_prefix(ptr noundef %10)
  %12 = icmp ne i32 %11, 0
  br label %13

13:                                               ; preds = %9, %1
  %14 = phi i1 [ true, %1 ], [ %12, %9 ]
  %15 = zext i1 %14 to i32
  ret i32 %15
}

; Function Attrs: inlinehint nounwind uwtable
define internal void @strbuf_addstr(ptr noundef %0, ptr noundef %1) #7 {
  %3 = alloca ptr, align 8
  %4 = alloca ptr, align 8
  store ptr %0, ptr %3, align 8, !tbaa !75
  store ptr %1, ptr %4, align 8, !tbaa !32
  %5 = load ptr, ptr %3, align 8, !tbaa !75
  %6 = load ptr, ptr %4, align 8, !tbaa !32
  %7 = load ptr, ptr %4, align 8, !tbaa !32
  %8 = call i64 @strlen(ptr noundef %7) #11
  call void @strbuf_add(ptr noundef %5, ptr noundef %6, i64 noundef %8)
  ret void
}

; Function Attrs: nounwind uwtable
define internal i32 @credential_do(ptr noundef %0, ptr noundef %1, ptr noundef %2) #0 {
  %4 = alloca ptr, align 8
  %5 = alloca ptr, align 8
  %6 = alloca ptr, align 8
  %7 = alloca %struct.strbuf, align 8
  %8 = alloca i32, align 4
  store ptr %0, ptr %4, align 8, !tbaa !4
  store ptr %1, ptr %5, align 8, !tbaa !32
  store ptr %2, ptr %6, align 8, !tbaa !32
  call void @llvm.lifetime.start.p0(i64 24, ptr %7) #10
  call void @llvm.memcpy.p0.p0.i64(ptr align 8 %7, ptr align 8 @__const.credential_do.cmd, i64 24, i1 false)
  call void @llvm.lifetime.start.p0(i64 4, ptr %8) #10
  %9 = load ptr, ptr %5, align 8, !tbaa !32
  %10 = getelementptr inbounds i8, ptr %9, i64 0
  %11 = load i8, ptr %10, align 1, !tbaa !36
  %12 = sext i8 %11 to i32
  %13 = icmp eq i32 %12, 33
  br i1 %13, label %14, label %17

14:                                               ; preds = %3
  %15 = load ptr, ptr %5, align 8, !tbaa !32
  %16 = getelementptr inbounds i8, ptr %15, i64 1
  call void @strbuf_addstr(ptr noundef %7, ptr noundef %16)
  br label %26

17:                                               ; preds = %3
  %18 = load ptr, ptr %5, align 8, !tbaa !32
  %19 = call i32 @is_absolute_path(ptr noundef %18)
  %20 = icmp ne i32 %19, 0
  br i1 %20, label %21, label %23

21:                                               ; preds = %17
  %22 = load ptr, ptr %5, align 8, !tbaa !32
  call void @strbuf_addstr(ptr noundef %7, ptr noundef %22)
  br label %25

23:                                               ; preds = %17
  %24 = load ptr, ptr %5, align 8, !tbaa !32
  call void (ptr, ptr, ...) @strbuf_addf(ptr noundef %7, ptr noundef @.str.44, ptr noundef %24)
  br label %25

25:                                               ; preds = %23, %21
  br label %26

26:                                               ; preds = %25, %14
  %27 = load ptr, ptr %6, align 8, !tbaa !32
  call void (ptr, ptr, ...) @strbuf_addf(ptr noundef %7, ptr noundef @.str.45, ptr noundef %27)
  %28 = load ptr, ptr %4, align 8, !tbaa !4
  %29 = getelementptr inbounds nuw %struct.strbuf, ptr %7, i32 0, i32 2
  %30 = load ptr, ptr %29, align 8, !tbaa !33
  %31 = load ptr, ptr %6, align 8, !tbaa !32
  %32 = call i32 @strcmp(ptr noundef %31, ptr noundef @.str.21) #11
  %33 = icmp ne i32 %32, 0
  %34 = xor i1 %33, true
  %35 = zext i1 %34 to i32
  %36 = call i32 @run_credential_helper(ptr noundef %28, ptr noundef %30, i32 noundef %35)
  store i32 %36, ptr %8, align 4, !tbaa !27
  call void @strbuf_release(ptr noundef %7)
  %37 = load i32, ptr %8, align 4, !tbaa !27
  call void @llvm.lifetime.end.p0(i64 4, ptr %8) #10
  call void @llvm.lifetime.end.p0(i64 24, ptr %7) #10
  ret i32 %37
}