; Function Attrs: nounwind uwtable
define internal fastcc void @credential_do(ptr noundef %0, ptr noundef %1, ptr noundef %2) unnamed_addr #3 {
  %4 = alloca %struct.child_process, align 8
  %5 = alloca %struct.strbuf, align 8
  call void @llvm.lifetime.start.p0(i64 24, ptr nonnull %5) #19
  call void @llvm.memcpy.p0.p0.i64(ptr noundef nonnull align 8 dereferenceable(24) %5, ptr noundef nonnull align 8 dereferenceable(24) @__const.credential_ask_one.prompt, i64 24, i1 false)
  %6 = load i8, ptr %1, align 1, !tbaa !27
  switch i8 %6, label %12 [
    i8 33, label %7
    i8 47, label %10
  ]

7:                                                ; preds = %3
  %8 = getelementptr inbounds nuw i8, ptr %1, i64 1
  %9 = tail call i64 @strlen(ptr noundef nonnull dereferenceable(1) %8) #20
  call void @strbuf_add(ptr noundef nonnull %5, ptr noundef nonnull %8, i64 noundef %9) #19
  br label %13

10:                                               ; preds = %3
  %11 = tail call i64 @strlen(ptr noundef nonnull dereferenceable(1) %1) #20
  call void @strbuf_add(ptr noundef nonnull %5, ptr noundef nonnull %1, i64 noundef %11) #19
  br label %13

12:                                               ; preds = %3
  call void (ptr, ptr, ...) @strbuf_addf(ptr noundef nonnull %5, ptr noundef nonnull @.str.44, ptr noundef nonnull %1) #19
  br label %13

13:                                               ; preds = %10, %12, %7
  call void (ptr, ptr, ...) @strbuf_addf(ptr noundef nonnull %5, ptr noundef nonnull @.str.45, ptr noundef %2) #19
  %14 = getelementptr inbounds nuw i8, ptr %5, i64 16
  %15 = load ptr, ptr %14, align 8, !tbaa !24
  %16 = call i32 @strcmp(ptr noundef nonnull dereferenceable(1) %2, ptr noundef nonnull dereferenceable(4) @.str.21) #20
  %.not8.not = icmp eq i32 %16, 0
  call void @llvm.lifetime.start.p0(i64 120, ptr nonnull %4) #19
  call void @llvm.memcpy.p0.p0.i64(ptr noundef nonnull align 8 dereferenceable(120) %4, ptr noundef nonnull align 8 dereferenceable(120) @__const.run_credential_helper.helper, i64 120, i1 false)
  %17 = call ptr @strvec_push(ptr noundef nonnull %4, ptr noundef %15) #19
  %18 = getelementptr inbounds nuw i8, ptr %4, i64 104
  %19 = load i16, ptr %18, align 8
  %20 = or i16 %19, 32
  store i16 %20, ptr %18, align 8
  %21 = getelementptr inbounds nuw i8, ptr %4, i64 80
  store i32 -1, ptr %21, align 8, !tbaa !54
  br i1 %.not8.not, label %22, label %24

22:                                               ; preds = %13
  %23 = getelementptr inbounds nuw i8, ptr %4, i64 84
  store i32 -1, ptr %23, align 4, !tbaa !56
  br label %26

24:                                               ; preds = %13
  %25 = or i16 %19, 34
  store i16 %25, ptr %18, align 8
  br label %26

26:                                               ; preds = %24, %22
  %27 = call i32 @start_command(ptr noundef nonnull %4) #19
  %28 = icmp slt i32 %27, 0
  br i1 %28, label %run_credential_helper.exit, label %29

29:                                               ; preds = %26
  %30 = load i32, ptr %21, align 8, !tbaa !54
  %31 = call ptr @xfdopen(i32 noundef %30, ptr noundef nonnull @.str.46) #19
  %32 = call i32 @sigchain_push(i32 noundef 13, ptr noundef nonnull inttoptr (i64 1 to ptr)) #19
  %33 = select i1 %.not8.not, i32 2, i32 3
  call void @credential_write(ptr noundef %0, ptr noundef %31, i32 noundef %33)
  %34 = call i32 @fclose(ptr noundef %31)
  %35 = call i32 @sigchain_pop(i32 noundef 13) #19
  br i1 %.not8.not, label %36, label %run_credential_helper.exit.sink.split

36:                                               ; preds = %29
  %37 = getelementptr inbounds nuw i8, ptr %4, i64 84
  %38 = load i32, ptr %37, align 4, !tbaa !56
  %39 = call ptr @xfdopen(i32 noundef %38, ptr noundef nonnull @.str.47) #19
  %40 = call i32 @credential_read(ptr noundef %0, ptr noundef %39, i32 noundef 2)
  %41 = call i32 @fclose(ptr noundef %39)
  br label %run_credential_helper.exit.sink.split

run_credential_helper.exit.sink.split:            ; preds = %36, %29
  %42 = call i32 @finish_command(ptr noundef nonnull %4) #19
  br label %run_credential_helper.exit

run_credential_helper.exit:                       ; preds = %run_credential_helper.exit.sink.split, %26
  call void @llvm.lifetime.end.p0(i64 120, ptr nonnull %4) #19
  call void @strbuf_release(ptr noundef nonnull %5) #19
  call void @llvm.lifetime.end.p0(i64 24, ptr nonnull %5) #19
  ret void
}